target datalayout = "e-m:e-p270:32:32-p271:32:32-p272:64:64-i64:64-i128:128-f80:128-n8:16:32:64-S128"
target triple = "x86_64-pc-linux-gnu"

%struct.t_atoms = type { i32, ptr, ptr, ptr, ptr, i32, ptr, ptr, i8, i8, i8, i8, i8 }
%struct.t_atom = type { float, float, float, float, i16, i16, i32, i32, i32, [4 x i8] }
%struct.t_resinfo = type { ptr, i32, i8, i32, i8, ptr }

; Function Attrs: mustprogress uwtable
define void @_Z19t_atoms_set_resinfoP7t_atomsiP8t_symtabPKcihic(ptr noundef %0, i32 noundef %1, ptr noundef %2, ptr noundef %3, i32 noundef %4, i8 noundef zeroext %5, i32 noundef %6, i8 noundef signext %7) #0 {
  %9 = alloca ptr, align 8
  %10 = alloca i32, align 4
  %11 = alloca ptr, align 8
  %12 = alloca ptr, align 8
  %13 = alloca i32, align 4
  %14 = alloca i8, align 1
  %15 = alloca i32, align 4
  %16 = alloca i8, align 1
  %17 = alloca ptr, align 8
  store ptr %0, ptr %9, align 8, !tbaa !93
  store i32 %1, ptr %10, align 4, !tbaa !60
  store ptr %2, ptr %11, align 8, !tbaa !161
  store ptr %3, ptr %12, align 8, !tbaa !8
  store i32 %4, ptr %13, align 4, !tbaa !60
  store i8 %5, ptr %14, align 1, !tbaa !76
  store i32 %6, ptr %15, align 4, !tbaa !60
  store i8 %7, ptr %16, align 1, !tbaa !76
  call void @llvm.lifetime.start.p0(i64 8, ptr %17) #13
  %18 = load ptr, ptr %9, align 8, !tbaa !93
  %19 = getelementptr inbounds nuw %struct.t_atoms, ptr %18, i32 0, i32 6
  %20 = load ptr, ptr %19, align 8, !tbaa !105
  %21 = load ptr, ptr %9, align 8, !tbaa !93
  %22 = getelementptr inbounds nuw %struct.t_atoms, ptr %21, i32 0, i32 1
  %23 = load ptr, ptr %22, align 8, !tbaa !104
  %24 = load i32, ptr %10, align 4, !tbaa !60
  %25 = sext i32 %24 to i64
  %26 = getelementptr inbounds %struct.t_atom, ptr %23, i64 %25
  %27 = getelementptr inbounds nuw %struct.t_atom, ptr %26, i32 0, i32 7
  %28 = load i32, ptr %27, align 4, !tbaa !163
  %29 = sext i32 %28 to i64
  %30 = getelementptr inbounds %struct.t_resinfo, ptr %20, i64 %29
  store ptr %30, ptr %17, align 8, !tbaa !116
  %31 = load ptr, ptr %11, align 8, !tbaa !161
  %32 = load ptr, ptr %12, align 8, !tbaa !8
  %33 = call noundef ptr @_Z10put_symtabP8t_symtabPKc(ptr noundef %31, ptr noundef %32)
  %34 = load ptr, ptr %17, align 8, !tbaa !116
  %35 = getelementptr inbounds nuw %struct.t_resinfo, ptr %34, i32 0, i32 0
  store ptr %33, ptr %35, align 8, !tbaa !165
  %36 = load ptr, ptr %17, align 8, !tbaa !116
  %37 = getelementptr inbounds nuw %struct.t_resinfo, ptr %36, i32 0, i32 5
  store ptr null, ptr %37, align 8, !tbaa !167
  %38 = load i32, ptr %13, align 4, !tbaa !60
  %39 = load ptr, ptr %17, align 8, !tbaa !116
  %40 = getelementptr inbounds nuw %struct.t_resinfo, ptr %39, i32 0, i32 1
  store i32 %38, ptr %40, align 8, !tbaa !168
  %41 = load i8, ptr %14, align 1, !tbaa !76
  %42 = load ptr, ptr %17, align 8, !tbaa !116
  %43 = getelementptr inbounds nuw %struct.t_resinfo, ptr %42, i32 0, i32 2
  store i8 %41, ptr %43, align 4, !tbaa !169
  %44 = load i32, ptr %15, align 4, !tbaa !60
  %45 = load ptr, ptr %17, align 8, !tbaa !116
  %46 = getelementptr inbounds nuw %struct.t_resinfo, ptr %45, i32 0, i32 3
  store i32 %44, ptr %46, align 8, !tbaa !170
  %47 = load i8, ptr %16, align 1, !tbaa !76
  %48 = load ptr, ptr %17, align 8, !tbaa !116
  %49 = getelementptr inbounds nuw %struct.t_resinfo, ptr %48, i32 0, i32 4
  store i8 %47, ptr %49, align 4, !tbaa !171
  call void @llvm.lifetime.end.p0(i64 8, ptr %17) #13
  ret void
}