; Function Attrs: mustprogress uwtable
define void @_Z19t_atoms_set_resinfoP7t_atomsiP8t_symtabPKcihic(ptr noundef readonly captures(none) %0, i32 noundef %1, ptr noundef %2, ptr noundef %3, i32 noundef %4, i8 noundef zeroext %5, i32 noundef %6, i8 noundef signext %7) local_unnamed_addr #1 {
  %9 = getelementptr inbounds nuw i8, ptr %0, i64 48
  %10 = load ptr, ptr %9, align 8, !tbaa !53
  %11 = getelementptr inbounds nuw i8, ptr %0, i64 8
  %12 = load ptr, ptr %11, align 8, !tbaa !52
  %13 = sext i32 %1 to i64
  %14 = getelementptr inbounds %struct.t_atom, ptr %12, i64 %13, i32 7
  %15 = load i32, ptr %14, align 4, !tbaa !92
  %16 = sext i32 %15 to i64
  %17 = getelementptr inbounds %struct.t_resinfo, ptr %10, i64 %16
  %18 = tail call noundef ptr @_Z10put_symtabP8t_symtabPKc(ptr noundef %2, ptr noundef %3)
  store ptr %18, ptr %17, align 8, !tbaa !94
  %19 = getelementptr inbounds nuw i8, ptr %17, i64 24
  store ptr null, ptr %19, align 8, !tbaa !96
  %20 = getelementptr inbounds nuw i8, ptr %17, i64 8
  store i32 %4, ptr %20, align 8, !tbaa !97
  %21 = getelementptr inbounds nuw i8, ptr %17, i64 12
  store i8 %5, ptr %21, align 4, !tbaa !98
  %22 = getelementptr inbounds nuw i8, ptr %17, i64 16
  store i32 %6, ptr %22, align 8, !tbaa !99
  %23 = getelementptr inbounds nuw i8, ptr %17, i64 20
  store i8 %7, ptr %23, align 4, !tbaa !100
  ret void
}